target datalayout = "e-m:e-p270:32:32-p271:32:32-p272:64:64-i64:64-i128:128-f80:128-n8:16:32:64-S128"
target triple = "x86_64-pc-linux-gnu"

@hf_smb2_ioctl_network_interface_next_offset = internal global i32 0, align 4
@hf_smb2_ioctl_network_interface_index = internal global i32 0, align 4
@hf_smb2_ioctl_network_interface_reserved = internal global i32 0, align 4
@hf_smb2_ioctl_network_interface_capabilities = internal global i32 0, align 4
@hf_smb2_ioctl_network_interface_link_speed = internal global i32 0, align 4
@ett_smb2_ioctl_network_interface = internal global i32 0, align 4
@ett_smb2_ioctl_network_interface_capabilities = internal global i32 0, align 4
@dissect_smb2_NETWORK_INTERFACE_INFO.capability_flags = internal constant [3 x ptr] [ptr @hf_smb2_ioctl_network_interface_capability_rdma, ptr @hf_smb2_ioctl_network_interface_capability_rss, ptr null], align 16
@.str.1536 = private unnamed_addr constant [18 x i8] c"Network Interface\00", align 1
@.str.1537 = private unnamed_addr constant [5 x i8] c"%s%s\00", align 1
@.str.1538 = private unnamed_addr constant [7 x i8] c", RDMA\00", align 1
@.str.1539 = private unnamed_addr constant [1 x i8] zeroinitializer, align 1
@.str.1540 = private unnamed_addr constant [6 x i8] c", RSS\00", align 1
@.str.1541 = private unnamed_addr constant [2 x i8] c"G\00", align 1
@.str.1542 = private unnamed_addr constant [2 x i8] c"M\00", align 1
@.str.1543 = private unnamed_addr constant [2 x i8] c"K\00", align 1
@.str.1544 = private unnamed_addr constant [16 x i8] c", %.1f %sBits/s\00", align 1

; Function Attrs: null_pointer_is_valid sspstrong uwtable
define internal void @dissect_smb2_NETWORK_INTERFACE_INFO(ptr noundef %0, ptr noundef %1, ptr noundef %2) #0 {
  %4 = alloca ptr, align 8
  %5 = alloca ptr, align 8
  %6 = alloca ptr, align 8
  %7 = alloca i32, align 4
  %8 = alloca i32, align 4
  %9 = alloca i32, align 4
  %10 = alloca ptr, align 8
  %11 = alloca ptr, align 8
  %12 = alloca ptr, align 8
  %13 = alloca i32, align 4
  %14 = alloca i64, align 8
  %15 = alloca float, align 4
  %16 = alloca ptr, align 8
  %17 = alloca ptr, align 8
  store ptr %0, ptr %4, align 8
  store ptr %1, ptr %5, align 8
  store ptr %2, ptr %6, align 8
  call void @llvm.lifetime.start.p0(i64 4, ptr %7) #13
  call void @llvm.lifetime.start.p0(i64 4, ptr %8) #13
  store i32 0, ptr %8, align 4
  call void @llvm.lifetime.start.p0(i64 4, ptr %9) #13
  store i32 -1, ptr %9, align 4
  call void @llvm.lifetime.start.p0(i64 8, ptr %10) #13
  call void @llvm.lifetime.start.p0(i64 8, ptr %11) #13
  call void @llvm.lifetime.start.p0(i64 8, ptr %12) #13
  store ptr null, ptr %12, align 8
  call void @llvm.lifetime.start.p0(i64 4, ptr %13) #13
  call void @llvm.lifetime.start.p0(i64 8, ptr %14) #13
  call void @llvm.lifetime.start.p0(i64 4, ptr %15) #13
  store float 0.000000e+00, ptr %15, align 4
  call void @llvm.lifetime.start.p0(i64 8, ptr %16) #13
  store ptr null, ptr %16, align 8
  %18 = load ptr, ptr %4, align 8
  %19 = load i32, ptr %8, align 4
  %20 = call i32 @tvb_get_letohl(ptr noundef %18, i32 noundef %19)
  store i32 %20, ptr %7, align 4
  %21 = load i32, ptr %7, align 4
  %22 = icmp ne i32 %21, 0
  br i1 %22, label %23, label %25

23:                                               ; preds = %3
  %24 = load i32, ptr %7, align 4
  store i32 %24, ptr %9, align 4
  br label %25

25:                                               ; preds = %23, %3
  %26 = load ptr, ptr %6, align 8
  %27 = load ptr, ptr %4, align 8
  %28 = load i32, ptr %8, align 4
  %29 = load i32, ptr %9, align 4
  %30 = load i32, ptr @ett_smb2_ioctl_network_interface, align 4
  %31 = call ptr @proto_tree_add_subtree(ptr noundef %26, ptr noundef %27, i32 noundef %28, i32 noundef %29, i32 noundef %30, ptr noundef %10, ptr noundef @.str.1536)
  store ptr %31, ptr %11, align 8
  %32 = load ptr, ptr %6, align 8
  %33 = call ptr @proto_tree_get_parent(ptr noundef %32)
  store ptr %33, ptr %12, align 8
  %34 = load ptr, ptr %11, align 8
  %35 = load i32, ptr @hf_smb2_ioctl_network_interface_next_offset, align 4
  %36 = load ptr, ptr %4, align 8
  %37 = load i32, ptr %8, align 4
  %38 = call ptr @proto_tree_add_item(ptr noundef %34, i32 noundef %35, ptr noundef %36, i32 noundef %37, i32 noundef 4, i32 noundef -2147483648)
  %39 = load i32, ptr %8, align 4
  %40 = add i32 %39, 4
  store i32 %40, ptr %8, align 4
  %41 = load ptr, ptr %11, align 8
  %42 = load i32, ptr @hf_smb2_ioctl_network_interface_index, align 4
  %43 = load ptr, ptr %4, align 8
  %44 = load i32, ptr %8, align 4
  %45 = call ptr @proto_tree_add_item(ptr noundef %41, i32 noundef %42, ptr noundef %43, i32 noundef %44, i32 noundef 4, i32 noundef -2147483648)
  %46 = load i32, ptr %8, align 4
  %47 = add i32 %46, 4
  store i32 %47, ptr %8, align 4
  %48 = load ptr, ptr %4, align 8
  %49 = load i32, ptr %8, align 4
  %50 = call i32 @tvb_get_letohl(ptr noundef %48, i32 noundef %49)
  store i32 %50, ptr %13, align 4
  %51 = load ptr, ptr %11, align 8
  %52 = load ptr, ptr %4, align 8
  %53 = load i32, ptr %8, align 4
  %54 = load i32, ptr @hf_smb2_ioctl_network_interface_capabilities, align 4
  %55 = load i32, ptr @ett_smb2_ioctl_network_interface_capabilities, align 4
  %56 = call ptr @proto_tree_add_bitmask(ptr noundef %51, ptr noundef %52, i32 noundef %53, i32 noundef %54, i32 noundef %55, ptr noundef @dissect_smb2_NETWORK_INTERFACE_INFO.capability_flags, i32 noundef -2147483648)
  %57 = load i32, ptr %13, align 4
  %58 = icmp ne i32 %57, 0
  br i1 %58, label %59, label %78

59:                                               ; preds = %25
  %60 = load ptr, ptr %12, align 8
  %61 = load i32, ptr %13, align 4
  %62 = and i32 %61, 2
  %63 = icmp ne i32 %62, 0
  %64 = select i1 %63, ptr @.str.1538, ptr @.str.1539
  %65 = load i32, ptr %13, align 4
  %66 = and i32 %65, 1
  %67 = icmp ne i32 %66, 0
  %68 = select i1 %67, ptr @.str.1540, ptr @.str.1539
  call void (ptr, ptr, ...) @proto_item_append_text(ptr noundef %60, ptr noundef @.str.1537, ptr noundef %64, ptr noundef %68)
  %69 = load ptr, ptr %10, align 8
  %70 = load i32, ptr %13, align 4
  %71 = and i32 %70, 2
  %72 = icmp ne i32 %71, 0
  %73 = select i1 %72, ptr @.str.1538, ptr @.str.1539
  %74 = load i32, ptr %13, align 4
  %75 = and i32 %74, 1
  %76 = icmp ne i32 %75, 0
  %77 = select i1 %76, ptr @.str.1540, ptr @.str.1539
  call void (ptr, ptr, ...) @proto_item_append_text(ptr noundef %69, ptr noundef @.str.1537, ptr noundef %73, ptr noundef %77)
  br label %78

78:                                               ; preds = %59, %25
  %79 = load i32, ptr %8, align 4
  %80 = add i32 %79, 4
  store i32 %80, ptr %8, align 4
  %81 = load ptr, ptr %11, align 8
  %82 = load i32, ptr @hf_smb2_ioctl_network_interface_reserved, align 4
  %83 = load ptr, ptr %4, align 8
  %84 = load i32, ptr %8, align 4
  %85 = call ptr @proto_tree_add_item(ptr noundef %81, i32 noundef %82, ptr noundef %83, i32 noundef %84, i32 noundef 4, i32 noundef -2147483648)
  %86 = load i32, ptr %8, align 4
  %87 = add i32 %86, 4
  store i32 %87, ptr %8, align 4
  %88 = load ptr, ptr %4, align 8
  %89 = load i32, ptr %8, align 4
  %90 = call i64 @tvb_get_letoh64(ptr noundef %88, i32 noundef %89)
  store i64 %90, ptr %14, align 8
  %91 = load ptr, ptr %11, align 8
  %92 = load i32, ptr @hf_smb2_ioctl_network_interface_link_speed, align 4
  %93 = load ptr, ptr %4, align 8
  %94 = load i32, ptr %8, align 4
  %95 = call ptr @proto_tree_add_item(ptr noundef %91, i32 noundef %92, ptr noundef %93, i32 noundef %94, i32 noundef 8, i32 noundef -2147483648)
  store ptr %95, ptr %12, align 8
  %96 = load i64, ptr %14, align 8
  %97 = icmp uge i64 %96, 1000000000
  br i1 %97, label %98, label %102

98:                                               ; preds = %78
  %99 = load i64, ptr %14, align 8
  %100 = udiv i64 %99, 1000000000
  %101 = uitofp i64 %100 to float
  store float %101, ptr %15, align 4
  store ptr @.str.1541, ptr %16, align 8
  br label %121

102:                                              ; preds = %78
  %103 = load i64, ptr %14, align 8
  %104 = icmp uge i64 %103, 1000000
  br i1 %104, label %105, label %109

105:                                              ; preds = %102
  %106 = load i64, ptr %14, align 8
  %107 = udiv i64 %106, 1000000
  %108 = uitofp i64 %107 to float
  store float %108, ptr %15, align 4
  store ptr @.str.1542, ptr %16, align 8
  br label %120

109:                                              ; preds = %102
  %110 = load i64, ptr %14, align 8
  %111 = icmp uge i64 %110, 1000
  br i1 %111, label %112, label %116

112:                                              ; preds = %109
  %113 = load i64, ptr %14, align 8
  %114 = udiv i64 %113, 1000
  %115 = uitofp i64 %114 to float
  store float %115, ptr %15, align 4
  store ptr @.str.1543, ptr %16, align 8
  br label %119

116:                                              ; preds = %109
  %117 = load i64, ptr %14, align 8
  %118 = uitofp i64 %117 to float
  store float %118, ptr %15, align 4
  store ptr @.str.1539, ptr %16, align 8
  br label %119

119:                                              ; preds = %116, %112
  br label %120

120:                                              ; preds = %119, %105
  br label %121

121:                                              ; preds = %120, %98
  %122 = load ptr, ptr %12, align 8
  %123 = load float, ptr %15, align 4
  %124 = fpext float %123 to double
  %125 = load ptr, ptr %16, align 8
  call void (ptr, ptr, ...) @proto_item_append_text(ptr noundef %122, ptr noundef @.str.1544, double noundef %124, ptr noundef %125)
  %126 = load ptr, ptr %10, align 8
  %127 = load float, ptr %15, align 4
  %128 = fpext float %127 to double
  %129 = load ptr, ptr %16, align 8
  call void (ptr, ptr, ...) @proto_item_append_text(ptr noundef %126, ptr noundef @.str.1544, double noundef %128, ptr noundef %129)
  %130 = load i32, ptr %8, align 4
  %131 = add i32 %130, 8
  store i32 %131, ptr %8, align 4
  %132 = load ptr, ptr %4, align 8
  %133 = load ptr, ptr %5, align 8
  %134 = load ptr, ptr %11, align 8
  %135 = load i32, ptr %8, align 4
  %136 = call i32 @dissect_windows_sockaddr_storage(ptr noundef %132, ptr noundef %133, ptr noundef %134, i32 noundef %135, i32 noundef -1)
  %137 = load i32, ptr %7, align 4
  %138 = icmp ne i32 %137, 0
  br i1 %138, label %139, label %148

139:                                              ; preds = %121
  call void @llvm.lifetime.start.p0(i64 8, ptr %17) #13
  %140 = load ptr, ptr %4, align 8
  %141 = load i32, ptr %7, align 4
  %142 = call ptr @tvb_new_subset_remaining(ptr noundef %140, i32 noundef %141)
  store ptr %142, ptr %17, align 8
  %143 = load ptr, ptr %5, align 8
  call void @increment_dissection_depth(ptr noundef %143)
  %144 = load ptr, ptr %17, align 8
  %145 = load ptr, ptr %5, align 8
  %146 = load ptr, ptr %6, align 8
  call void @dissect_smb2_NETWORK_INTERFACE_INFO(ptr noundef %144, ptr noundef %145, ptr noundef %146)
  %147 = load ptr, ptr %5, align 8
  call void @decrement_dissection_depth(ptr noundef %147)
  call void @llvm.lifetime.end.p0(i64 8, ptr %17) #13
  br label %148

148:                                              ; preds = %139, %121
  call void @llvm.lifetime.end.p0(i64 8, ptr %16) #13
  call void @llvm.lifetime.end.p0(i64 4, ptr %15) #13
  call void @llvm.lifetime.end.p0(i64 8, ptr %14) #13
  call void @llvm.lifetime.end.p0(i64 4, ptr %13) #13
  call void @llvm.lifetime.end.p0(i64 8, ptr %12) #13
  call void @llvm.lifetime.end.p0(i64 8, ptr %11) #13
  call void @llvm.lifetime.end.p0(i64 8, ptr %10) #13
  call void @llvm.lifetime.end.p0(i64 4, ptr %9) #13
  call void @llvm.lifetime.end.p0(i64 4, ptr %8) #13
  call void @llvm.lifetime.end.p0(i64 4, ptr %7) #13
  ret void
}