; Function Attrs: null_pointer_is_valid sspstrong uwtable
define internal fastcc void @dissect_smb2_NETWORK_INTERFACE_INFO(ptr noundef %0, ptr noundef %1, ptr noundef %2) unnamed_addr #0 {
  %4 = alloca ptr, align 8
  call void @llvm.lifetime.start.p0(i64 8, ptr nonnull %4) #13
  %5 = tail call i32 @tvb_get_letohl(ptr noundef %0, i32 noundef 0)
  %.not = icmp eq i32 %5, 0
  %spec.select = select i1 %.not, i32 -1, i32 %5
  %6 = load i32, ptr @ett_smb2_ioctl_network_interface, align 4
  %7 = call ptr @proto_tree_add_subtree(ptr noundef %2, ptr noundef %0, i32 noundef 0, i32 noundef %spec.select, i32 noundef %6, ptr noundef nonnull %4, ptr noundef nonnull @.str.1536)
  %8 = call ptr @proto_tree_get_parent(ptr noundef %2)
  %9 = load i32, ptr @hf_smb2_ioctl_network_interface_next_offset, align 4
  %10 = call ptr @proto_tree_add_item(ptr noundef %7, i32 noundef %9, ptr noundef %0, i32 noundef 0, i32 noundef 4, i32 noundef -2147483648)
  %11 = load i32, ptr @hf_smb2_ioctl_network_interface_index, align 4
  %12 = call ptr @proto_tree_add_item(ptr noundef %7, i32 noundef %11, ptr noundef %0, i32 noundef 4, i32 noundef 4, i32 noundef -2147483648)
  %13 = call i32 @tvb_get_letohl(ptr noundef %0, i32 noundef 8)
  %14 = load i32, ptr @hf_smb2_ioctl_network_interface_capabilities, align 4
  %15 = load i32, ptr @ett_smb2_ioctl_network_interface_capabilities, align 4
  %16 = call ptr @proto_tree_add_bitmask(ptr noundef %7, ptr noundef %0, i32 noundef 8, i32 noundef %14, i32 noundef %15, ptr noundef nonnull @dissect_smb2_NETWORK_INTERFACE_INFO.capability_flags, i32 noundef -2147483648)
  %.not68 = icmp eq i32 %13, 0
  br i1 %.not68, label %23, label %17

17:                                               ; preds = %3
  %18 = and i32 %13, 2
  %.not69 = icmp eq i32 %18, 0
  %19 = select i1 %.not69, ptr @.str.1539, ptr @.str.1538
  %20 = and i32 %13, 1
  %.not70 = icmp eq i32 %20, 0
  %21 = select i1 %.not70, ptr @.str.1539, ptr @.str.1540
  call void (ptr, ptr, ...) @proto_item_append_text(ptr noundef %8, ptr noundef nonnull @.str.1537, ptr noundef nonnull %19, ptr noundef nonnull %21)
  %22 = load ptr, ptr %4, align 8
  call void (ptr, ptr, ...) @proto_item_append_text(ptr noundef %22, ptr noundef nonnull @.str.1537, ptr noundef nonnull %19, ptr noundef nonnull %21)
  br label %23

23:                                               ; preds = %17, %3
  %24 = load i32, ptr @hf_smb2_ioctl_network_interface_reserved, align 4
  %25 = call ptr @proto_tree_add_item(ptr noundef %7, i32 noundef %24, ptr noundef %0, i32 noundef 12, i32 noundef 4, i32 noundef -2147483648)
  %26 = call i64 @tvb_get_letoh64(ptr noundef %0, i32 noundef 16)
  %27 = load i32, ptr @hf_smb2_ioctl_network_interface_link_speed, align 4
  %28 = call ptr @proto_tree_add_item(ptr noundef %7, i32 noundef %27, ptr noundef %0, i32 noundef 16, i32 noundef 8, i32 noundef -2147483648)
  %29 = icmp ugt i64 %26, 999999999
  br i1 %29, label %30, label %32

30:                                               ; preds = %23
  %31 = udiv i64 %26, 1000000000
  br label %40

32:                                               ; preds = %23
  %33 = icmp samesign ugt i64 %26, 999999
  br i1 %33, label %34, label %36

34:                                               ; preds = %32
  %.lhs.trunc = trunc nuw i64 %26 to i32
  %35 = udiv i32 %.lhs.trunc, 1000000
  %.zext = zext nneg i32 %35 to i64
  br label %40

36:                                               ; preds = %32
  %37 = icmp samesign ugt i64 %26, 999
  br i1 %37, label %38, label %40

38:                                               ; preds = %36
  %.lhs.trunc71 = trunc nuw i64 %26 to i32
  %39 = udiv i32 %.lhs.trunc71, 1000
  %.zext72 = zext nneg i32 %39 to i64
  br label %40

40:                                               ; preds = %36, %34, %38, %30
  %.062.in = phi i64 [ %31, %30 ], [ %.zext, %34 ], [ %.zext72, %38 ], [ %26, %36 ]
  %.0 = phi ptr [ @.str.1541, %30 ], [ @.str.1542, %34 ], [ @.str.1543, %38 ], [ @.str.1539, %36 ]
  %.062 = uitofp nneg i64 %.062.in to float
  %41 = fpext float %.062 to double
  call void (ptr, ptr, ...) @proto_item_append_text(ptr noundef %28, ptr noundef nonnull @.str.1544, double noundef %41, ptr noundef nonnull %.0)
  %42 = load ptr, ptr %4, align 8
  call void (ptr, ptr, ...) @proto_item_append_text(ptr noundef %42, ptr noundef nonnull @.str.1544, double noundef %41, ptr noundef nonnull %.0)
  %43 = call fastcc i32 @dissect_windows_sockaddr_storage(ptr noundef %0, ptr noundef %1, ptr noundef %7, i32 noundef 24)
  br i1 %.not, label %46, label %44

44:                                               ; preds = %40
  %45 = call ptr @tvb_new_subset_remaining(ptr noundef %0, i32 noundef %5)
  call void @increment_dissection_depth(ptr noundef %1)
  call fastcc void @dissect_smb2_NETWORK_INTERFACE_INFO(ptr noundef %45, ptr noundef %1, ptr noundef %2)
  call void @decrement_dissection_depth(ptr noundef %1)
  br label %46

46:                                               ; preds = %44, %40
  call void @llvm.lifetime.end.p0(i64 8, ptr nonnull %4) #13
  ret void
}